target datalayout = "e-m:e-p270:32:32-p271:32:32-p272:64:64-i64:64-i128:128-f80:128-n8:16:32:64-S128"
target triple = "x86_64-pc-linux-gnu"

%struct._object = type { %union.anon, ptr }
%union.anon = type { i64 }
%struct.PyVarObject = type { %struct._object, i64 }
%struct.PyBytesObject = type { %struct.PyVarObject, i64, [1 x i8] }
%struct.WFILE = type { ptr, i32, i32, ptr, ptr, ptr, ptr, ptr, i32, i32 }
%struct.anon = type { i32, i32 }

@.str = private unnamed_addr constant [14 x i8] c"marshal.dumps\00", align 1
@.str.1 = private unnamed_addr constant [3 x i8] c"Oi\00", align 1
@PyExc_ValueError = external global ptr, align 8
@.str.32 = private unnamed_addr constant [36 x i8] c"object too deeply nested to marshal\00", align 1
@.str.33 = private unnamed_addr constant [39 x i8] c"marshalling code objects is disallowed\00", align 1
@.str.34 = private unnamed_addr constant [22 x i8] c"unmarshallable object\00", align 1

; Function Attrs: alwaysinline nounwind uwtable
define internal i32 @_Py_IsImmortal(ptr noundef %0) #4 {
  %2 = alloca ptr, align 8
  store ptr %0, ptr %2, align 8, !tbaa !25
  %3 = load ptr, ptr %2, align 8, !tbaa !25
  %4 = getelementptr inbounds nuw %struct._object, ptr %3, i32 0, i32 0
  %5 = getelementptr inbounds nuw %struct.anon, ptr %4, i32 0, i32 0
  %6 = load i32, ptr %5, align 8, !tbaa !24
  %7 = icmp slt i32 %6, 0
  %8 = zext i1 %7 to i32
  ret i32 %8
}

; Function Attrs: inlinehint nounwind uwtable
define internal i64 @Py_SIZE(ptr noundef %0) #5 {
  %2 = alloca ptr, align 8
  store ptr %0, ptr %2, align 8, !tbaa !25
  %3 = load ptr, ptr %2, align 8, !tbaa !25
  %4 = getelementptr inbounds nuw %struct.PyVarObject, ptr %3, i32 0, i32 1
  %5 = load i64, ptr %4, align 8, !tbaa !45
  ret i64 %5
}

; Function Attrs: inlinehint nounwind uwtable
define internal void @Py_XDECREF(ptr noundef %0) #5 {
  %2 = alloca ptr, align 8
  store ptr %0, ptr %2, align 8, !tbaa !25
  %3 = load ptr, ptr %2, align 8, !tbaa !25
  %4 = icmp ne ptr %3, null
  br i1 %4, label %5, label %7

5:                                                ; preds = %1
  %6 = load ptr, ptr %2, align 8, !tbaa !25
  call void @Py_DECREF(ptr noundef %6)
  br label %7

7:                                                ; preds = %5, %1
  ret void
}

; Function Attrs: nounwind uwtable
define internal void @w_clear_refs(ptr noundef %0) #0 {
  %2 = alloca ptr, align 8
  store ptr %0, ptr %2, align 8, !tbaa !23
  %3 = load ptr, ptr %2, align 8, !tbaa !23
  %4 = getelementptr inbounds nuw %struct.WFILE, ptr %3, i32 0, i32 7
  %5 = load ptr, ptr %4, align 8, !tbaa !27
  %6 = icmp ne ptr %5, null
  br i1 %6, label %7, label %11

7:                                                ; preds = %1
  %8 = load ptr, ptr %2, align 8, !tbaa !23
  %9 = getelementptr inbounds nuw %struct.WFILE, ptr %8, i32 0, i32 7
  %10 = load ptr, ptr %9, align 8, !tbaa !27
  call void @_Py_hashtable_destroy(ptr noundef %10)
  br label %11

11:                                               ; preds = %7, %1
  ret void
}

; Function Attrs: alwaysinline nounwind uwtable
define internal void @Py_DECREF(ptr noundef %0) #4 {
  %2 = alloca ptr, align 8
  store ptr %0, ptr %2, align 8, !tbaa !25
  %3 = load ptr, ptr %2, align 8, !tbaa !25
  %4 = call i32 @_Py_IsImmortal(ptr noundef %3)
  %5 = icmp ne i32 %4, 0
  br i1 %5, label %6, label %7

6:                                                ; preds = %1
  br label %16

7:                                                ; preds = %1
  %8 = load ptr, ptr %2, align 8, !tbaa !25
  %9 = getelementptr inbounds nuw %struct._object, ptr %8, i32 0, i32 0
  %10 = getelementptr inbounds nuw %struct.anon, ptr %9, i32 0, i32 0
  %11 = load i32, ptr %10, align 8, !tbaa !24
  %12 = add i32 %11, -1
  store i32 %12, ptr %10, align 8, !tbaa !24
  %13 = icmp eq i32 %12, 0
  br i1 %13, label %14, label %16

14:                                               ; preds = %7
  %15 = load ptr, ptr %2, align 8, !tbaa !25
  call void @_Py_Dealloc(ptr noundef %15)
  br label %16

16:                                               ; preds = %6, %14, %7
  ret void
}

; Function Attrs: nounwind uwtable
define internal i32 @w_init_refs(ptr noundef %0, i32 noundef %1) #0 {
  %3 = alloca i32, align 4
  %4 = alloca ptr, align 8
  %5 = alloca i32, align 4
  store ptr %0, ptr %4, align 8, !tbaa !23
  store i32 %1, ptr %5, align 4, !tbaa !11
  %6 = load i32, ptr %5, align 4, !tbaa !11
  %7 = icmp sge i32 %6, 3
  br i1 %7, label %8, label %19

8:                                                ; preds = %2
  %9 = call ptr @_Py_hashtable_new_full(ptr noundef @_Py_hashtable_hash_ptr, ptr noundef @_Py_hashtable_compare_direct, ptr noundef @w_decref_entry, ptr noundef null, ptr noundef null)
  %10 = load ptr, ptr %4, align 8, !tbaa !23
  %11 = getelementptr inbounds nuw %struct.WFILE, ptr %10, i32 0, i32 7
  store ptr %9, ptr %11, align 8, !tbaa !27
  %12 = load ptr, ptr %4, align 8, !tbaa !23
  %13 = getelementptr inbounds nuw %struct.WFILE, ptr %12, i32 0, i32 7
  %14 = load ptr, ptr %13, align 8, !tbaa !27
  %15 = icmp eq ptr %14, null
  br i1 %15, label %16, label %18

16:                                               ; preds = %8
  %17 = call ptr @PyErr_NoMemory()
  store i32 -1, ptr %3, align 4
  br label %20

18:                                               ; preds = %8
  br label %19

19:                                               ; preds = %18, %2
  store i32 0, ptr %3, align 4
  br label %20

20:                                               ; preds = %19, %16
  %21 = load i32, ptr %3, align 4
  ret i32 %21
}

; Function Attrs: inlinehint nounwind uwtable
define internal i64 @PyBytes_GET_SIZE(ptr noundef %0) #5 {
  %2 = alloca ptr, align 8
  %3 = alloca ptr, align 8
  store ptr %0, ptr %2, align 8, !tbaa !25
  call void @llvm.lifetime.start.p0(i64 8, ptr %3) #11
  %4 = load ptr, ptr %2, align 8, !tbaa !25
  store ptr %4, ptr %3, align 8, !tbaa !23
  %5 = load ptr, ptr %3, align 8, !tbaa !23
  %6 = call i64 @Py_SIZE(ptr noundef %5)
  call void @llvm.lifetime.end.p0(i64 8, ptr %3) #11
  ret i64 %6
}

; Function Attrs: inlinehint nounwind uwtable
define internal ptr @PyBytes_AS_STRING(ptr noundef %0) #5 {
  %2 = alloca ptr, align 8
  store ptr %0, ptr %2, align 8, !tbaa !25
  %3 = load ptr, ptr %2, align 8, !tbaa !25
  %4 = getelementptr inbounds nuw %struct.PyBytesObject, ptr %3, i32 0, i32 2
  %5 = getelementptr inbounds [1 x i8], ptr %4, i64 0, i64 0
  ret ptr %5
}

; Function Attrs: nounwind uwtable
define internal ptr @_PyMarshal_WriteObjectToString(ptr noundef %0, i32 noundef %1, i32 noundef %2) #0 {
  %4 = alloca ptr, align 8
  %5 = alloca ptr, align 8
  %6 = alloca i32, align 4
  %7 = alloca i32, align 4
  %8 = alloca %struct.WFILE, align 8
  %9 = alloca i32, align 4
  %10 = alloca ptr, align 8
  store ptr %0, ptr %5, align 8, !tbaa !25
  store i32 %1, ptr %6, align 4, !tbaa !11
  store i32 %2, ptr %7, align 4, !tbaa !11
  call void @llvm.lifetime.start.p0(i64 64, ptr %8) #11
  %11 = load ptr, ptr %5, align 8, !tbaa !25
  %12 = load i32, ptr %6, align 4, !tbaa !11
  %13 = call i32 (ptr, ptr, ...) @PySys_Audit(ptr noundef @.str, ptr noundef @.str.1, ptr noundef %11, i32 noundef %12)
  %14 = icmp slt i32 %13, 0
  br i1 %14, label %15, label %16

15:                                               ; preds = %3
  store ptr null, ptr %4, align 8
  store i32 1, ptr %9, align 4
  br label %92

16:                                               ; preds = %3
  call void @llvm.memset.p0.i64(ptr align 8 %8, i8 0, i64 64, i1 false)
  %17 = call ptr @PyBytes_FromStringAndSize(ptr noundef null, i64 noundef 50)
  %18 = getelementptr inbounds nuw %struct.WFILE, ptr %8, i32 0, i32 3
  store ptr %17, ptr %18, align 8, !tbaa !44
  %19 = getelementptr inbounds nuw %struct.WFILE, ptr %8, i32 0, i32 3
  %20 = load ptr, ptr %19, align 8, !tbaa !44
  %21 = icmp eq ptr %20, null
  br i1 %21, label %22, label %23

22:                                               ; preds = %16
  store ptr null, ptr %4, align 8
  store i32 1, ptr %9, align 4
  br label %92

23:                                               ; preds = %16
  %24 = getelementptr inbounds nuw %struct.WFILE, ptr %8, i32 0, i32 3
  %25 = load ptr, ptr %24, align 8, !tbaa !44
  %26 = call ptr @PyBytes_AS_STRING(ptr noundef %25)
  %27 = getelementptr inbounds nuw %struct.WFILE, ptr %8, i32 0, i32 6
  store ptr %26, ptr %27, align 8, !tbaa !18
  %28 = getelementptr inbounds nuw %struct.WFILE, ptr %8, i32 0, i32 4
  store ptr %26, ptr %28, align 8, !tbaa !19
  %29 = getelementptr inbounds nuw %struct.WFILE, ptr %8, i32 0, i32 4
  %30 = load ptr, ptr %29, align 8, !tbaa !19
  %31 = getelementptr inbounds nuw %struct.WFILE, ptr %8, i32 0, i32 3
  %32 = load ptr, ptr %31, align 8, !tbaa !44
  %33 = call i64 @PyBytes_GET_SIZE(ptr noundef %32)
  %34 = getelementptr i8, ptr %30, i64 %33
  %35 = getelementptr inbounds nuw %struct.WFILE, ptr %8, i32 0, i32 5
  store ptr %34, ptr %35, align 8, !tbaa !20
  %36 = getelementptr inbounds nuw %struct.WFILE, ptr %8, i32 0, i32 1
  store i32 0, ptr %36, align 8, !tbaa !21
  %37 = load i32, ptr %6, align 4, !tbaa !11
  %38 = getelementptr inbounds nuw %struct.WFILE, ptr %8, i32 0, i32 8
  store i32 %37, ptr %38, align 8, !tbaa !22
  %39 = load i32, ptr %7, align 4, !tbaa !11
  %40 = getelementptr inbounds nuw %struct.WFILE, ptr %8, i32 0, i32 9
  store i32 %39, ptr %40, align 4, !tbaa !26
  %41 = load i32, ptr %6, align 4, !tbaa !11
  %42 = call i32 @w_init_refs(ptr noundef %8, i32 noundef %41)
  %43 = icmp ne i32 %42, 0
  br i1 %43, label %44, label %47

44:                                               ; preds = %23
  %45 = getelementptr inbounds nuw %struct.WFILE, ptr %8, i32 0, i32 3
  %46 = load ptr, ptr %45, align 8, !tbaa !44
  call void @Py_DECREF(ptr noundef %46)
  store ptr null, ptr %4, align 8
  store i32 1, ptr %9, align 4
  br label %92

47:                                               ; preds = %23
  %48 = load ptr, ptr %5, align 8, !tbaa !25
  call void @w_object(ptr noundef %48, ptr noundef %8)
  call void @w_clear_refs(ptr noundef %8)
  %49 = getelementptr inbounds nuw %struct.WFILE, ptr %8, i32 0, i32 3
  %50 = load ptr, ptr %49, align 8, !tbaa !44
  %51 = icmp ne ptr %50, null
  br i1 %51, label %52, label %70

52:                                               ; preds = %47
  call void @llvm.lifetime.start.p0(i64 8, ptr %10) #11
  %53 = getelementptr inbounds nuw %struct.WFILE, ptr %8, i32 0, i32 3
  %54 = load ptr, ptr %53, align 8, !tbaa !44
  %55 = call ptr @PyBytes_AS_STRING(ptr noundef %54)
  store ptr %55, ptr %10, align 8, !tbaa !37
  %56 = getelementptr inbounds nuw %struct.WFILE, ptr %8, i32 0, i32 3
  %57 = getelementptr inbounds nuw %struct.WFILE, ptr %8, i32 0, i32 4
  %58 = load ptr, ptr %57, align 8, !tbaa !19
  %59 = load ptr, ptr %10, align 8, !tbaa !37
  %60 = ptrtoint ptr %58 to i64
  %61 = ptrtoint ptr %59 to i64
  %62 = sub i64 %60, %61
  %63 = call i32 @_PyBytes_Resize(ptr noundef %56, i64 noundef %62)
  %64 = icmp slt i32 %63, 0
  br i1 %64, label %65, label %66

65:                                               ; preds = %52
  store ptr null, ptr %4, align 8
  store i32 1, ptr %9, align 4
  br label %67

66:                                               ; preds = %52
  store i32 0, ptr %9, align 4
  br label %67

67:                                               ; preds = %66, %65
  call void @llvm.lifetime.end.p0(i64 8, ptr %10) #11
  %68 = load i32, ptr %9, align 4
  switch i32 %68, label %92 [
    i32 0, label %69
  ]

69:                                               ; preds = %67
  br label %70

70:                                               ; preds = %69, %47
  %71 = getelementptr inbounds nuw %struct.WFILE, ptr %8, i32 0, i32 1
  %72 = load i32, ptr %71, align 8, !tbaa !21
  %73 = icmp ne i32 %72, 0
  br i1 %73, label %74, label %89

74:                                               ; preds = %70
  %75 = getelementptr inbounds nuw %struct.WFILE, ptr %8, i32 0, i32 3
  %76 = load ptr, ptr %75, align 8, !tbaa !44
  call void @Py_XDECREF(ptr noundef %76)
  %77 = getelementptr inbounds nuw %struct.WFILE, ptr %8, i32 0, i32 1
  %78 = load i32, ptr %77, align 8, !tbaa !21
  switch i32 %78, label %85 [
    i32 3, label %79
    i32 2, label %81
    i32 4, label %83
    i32 1, label %86
  ]

79:                                               ; preds = %74
  %80 = call ptr @PyErr_NoMemory()
  br label %88

81:                                               ; preds = %74
  %82 = load ptr, ptr @PyExc_ValueError, align 8, !tbaa !25
  call void @PyErr_SetString(ptr noundef %82, ptr noundef @.str.32)
  br label %88

83:                                               ; preds = %74
  %84 = load ptr, ptr @PyExc_ValueError, align 8, !tbaa !25
  call void @PyErr_SetString(ptr noundef %84, ptr noundef @.str.33)
  br label %88

85:                                               ; preds = %74
  br label %86

86:                                               ; preds = %74, %85
  %87 = load ptr, ptr @PyExc_ValueError, align 8, !tbaa !25
  call void @PyErr_SetString(ptr noundef %87, ptr noundef @.str.34)
  br label %88

88:                                               ; preds = %86, %83, %81, %79
  store ptr null, ptr %4, align 8
  store i32 1, ptr %9, align 4
  br label %92

89:                                               ; preds = %70
  %90 = getelementptr inbounds nuw %struct.WFILE, ptr %8, i32 0, i32 3
  %91 = load ptr, ptr %90, align 8, !tbaa !44
  store ptr %91, ptr %4, align 8
  store i32 1, ptr %9, align 4
  br label %92

92:                                               ; preds = %89, %88, %67, %44, %22, %15
  call void @llvm.lifetime.end.p0(i64 64, ptr %8) #11
  %93 = load ptr, ptr %4, align 8
  ret ptr %93
}