; Function Attrs: nounwind uwtable
define internal fastcc ptr @_PyMarshal_WriteObjectToString(ptr noundef %0, i32 noundef %1, i32 noundef %2) unnamed_addr #0 {
  %4 = alloca %struct.WFILE, align 8
  call void @llvm.lifetime.start.p0(i64 64, ptr nonnull %4) #11
  %5 = tail call i32 (ptr, ptr, ...) @PySys_Audit(ptr noundef nonnull @.str, ptr noundef nonnull @.str.1, ptr noundef %0, i32 noundef %1) #11
  %6 = icmp slt i32 %5, 0
  br i1 %6, label %Py_DECREF.exit, label %7

7:                                                ; preds = %3
  call void @llvm.memset.p0.i64(ptr noundef nonnull align 8 dereferenceable(64) %4, i8 0, i64 56, i1 false)
  %8 = tail call ptr @PyBytes_FromStringAndSize(ptr noundef null, i64 noundef 50) #11
  %9 = getelementptr inbounds nuw i8, ptr %4, i64 16
  store ptr %8, ptr %9, align 8, !tbaa !18
  %10 = icmp eq ptr %8, null
  br i1 %10, label %Py_DECREF.exit, label %11

11:                                               ; preds = %7
  %12 = getelementptr inbounds nuw i8, ptr %8, i64 32
  %13 = getelementptr inbounds nuw i8, ptr %4, i64 40
  store ptr %12, ptr %13, align 8, !tbaa !14
  %14 = getelementptr inbounds nuw i8, ptr %4, i64 24
  store ptr %12, ptr %14, align 8, !tbaa !15
  %15 = getelementptr i8, ptr %8, i64 16
  %.val = load i64, ptr %15, align 8, !tbaa !19
  %16 = getelementptr i8, ptr %12, i64 %.val
  %17 = getelementptr inbounds nuw i8, ptr %4, i64 32
  store ptr %16, ptr %17, align 8, !tbaa !16
  %18 = getelementptr inbounds nuw i8, ptr %4, i64 8
  store i32 0, ptr %18, align 8, !tbaa !24
  %19 = getelementptr inbounds nuw i8, ptr %4, i64 56
  store i32 %1, ptr %19, align 8, !tbaa !17
  %20 = getelementptr inbounds nuw i8, ptr %4, i64 60
  store i32 %2, ptr %20, align 4, !tbaa !26
  %21 = icmp sgt i32 %1, 2
  br i1 %21, label %22, label %33

22:                                               ; preds = %11
  %23 = tail call ptr @_Py_hashtable_new_full(ptr noundef nonnull @_Py_hashtable_hash_ptr, ptr noundef nonnull @_Py_hashtable_compare_direct, ptr noundef nonnull @w_decref_entry, ptr noundef null, ptr noundef null) #11
  %24 = getelementptr inbounds nuw i8, ptr %4, i64 48
  store ptr %23, ptr %24, align 8, !tbaa !27
  %25 = icmp eq ptr %23, null
  br i1 %25, label %26, label %33

26:                                               ; preds = %22
  %27 = tail call ptr @PyErr_NoMemory() #11
  %28 = load i32, ptr %8, align 8, !tbaa !25
  %.not.i = icmp sgt i32 %28, -1
  br i1 %.not.i, label %29, label %Py_DECREF.exit

29:                                               ; preds = %26
  %30 = add nsw i32 %28, -1
  store i32 %30, ptr %8, align 8, !tbaa !25
  %31 = icmp eq i32 %30, 0
  br i1 %31, label %32, label %Py_DECREF.exit

32:                                               ; preds = %29
  tail call void @_Py_Dealloc(ptr noundef nonnull %8) #11
  br label %Py_DECREF.exit

33:                                               ; preds = %22, %11
  call fastcc void @w_object(ptr noundef %0, ptr noundef %4)
  %34 = getelementptr inbounds nuw i8, ptr %4, i64 48
  %.val13 = load ptr, ptr %34, align 8, !tbaa !27
  %.not.i14 = icmp eq ptr %.val13, null
  br i1 %.not.i14, label %w_clear_refs.exit, label %35

35:                                               ; preds = %33
  call void @_Py_hashtable_destroy(ptr noundef nonnull %.val13) #11
  br label %w_clear_refs.exit

w_clear_refs.exit:                                ; preds = %33, %35
  %36 = load ptr, ptr %9, align 8, !tbaa !18
  %.not11 = icmp eq ptr %36, null
  br i1 %.not11, label %45, label %37

37:                                               ; preds = %w_clear_refs.exit
  %38 = getelementptr inbounds nuw i8, ptr %36, i64 32
  %39 = load ptr, ptr %14, align 8, !tbaa !15
  %40 = ptrtoint ptr %39 to i64
  %41 = ptrtoint ptr %38 to i64
  %42 = sub i64 %40, %41
  %43 = call i32 @_PyBytes_Resize(ptr noundef nonnull %9, i64 noundef %42) #11
  %44 = icmp sgt i32 %43, -1
  br i1 %44, label %45, label %Py_DECREF.exit

45:                                               ; preds = %37, %w_clear_refs.exit
  %46 = load i32, ptr %18, align 8, !tbaa !24
  %.not12 = icmp eq i32 %46, 0
  %47 = load ptr, ptr %9, align 8, !tbaa !18
  br i1 %.not12, label %Py_DECREF.exit, label %48

48:                                               ; preds = %45
  %.not.i15 = icmp eq ptr %47, null
  br i1 %.not.i15, label %Py_XDECREF.exit, label %49

49:                                               ; preds = %48
  %50 = load i32, ptr %47, align 8, !tbaa !25
  %.not.i.i = icmp sgt i32 %50, -1
  br i1 %.not.i.i, label %51, label %Py_XDECREF.exitthread-pre-split

51:                                               ; preds = %49
  %52 = add nsw i32 %50, -1
  store i32 %52, ptr %47, align 8, !tbaa !25
  %53 = icmp eq i32 %52, 0
  br i1 %53, label %54, label %Py_XDECREF.exitthread-pre-split

54:                                               ; preds = %51
  call void @_Py_Dealloc(ptr noundef nonnull %47) #11
  br label %Py_XDECREF.exitthread-pre-split

Py_XDECREF.exitthread-pre-split:                  ; preds = %54, %51, %49
  %.pr = load i32, ptr %18, align 8, !tbaa !24
  br label %Py_XDECREF.exit

Py_XDECREF.exit:                                  ; preds = %Py_XDECREF.exitthread-pre-split, %48
  %55 = phi i32 [ %.pr, %Py_XDECREF.exitthread-pre-split ], [ %46, %48 ]
  switch i32 %55, label %62 [
    i32 3, label %56
    i32 2, label %58
    i32 4, label %60
  ]

56:                                               ; preds = %Py_XDECREF.exit
  %57 = call ptr @PyErr_NoMemory() #11
  br label %Py_DECREF.exit

58:                                               ; preds = %Py_XDECREF.exit
  %59 = load ptr, ptr @PyExc_ValueError, align 8, !tbaa !29
  call void @PyErr_SetString(ptr noundef %59, ptr noundef nonnull @.str.32) #11
  br label %Py_DECREF.exit

60:                                               ; preds = %Py_XDECREF.exit
  %61 = load ptr, ptr @PyExc_ValueError, align 8, !tbaa !29
  call void @PyErr_SetString(ptr noundef %61, ptr noundef nonnull @.str.33) #11
  br label %Py_DECREF.exit

62:                                               ; preds = %Py_XDECREF.exit
  %63 = load ptr, ptr @PyExc_ValueError, align 8, !tbaa !29
  call void @PyErr_SetString(ptr noundef %63, ptr noundef nonnull @.str.34) #11
  br label %Py_DECREF.exit

Py_DECREF.exit:                                   ; preds = %45, %32, %29, %26, %56, %58, %60, %62, %7, %3, %37
  %.0 = phi ptr [ null, %37 ], [ null, %3 ], [ null, %7 ], [ null, %62 ], [ null, %60 ], [ null, %58 ], [ null, %56 ], [ null, %26 ], [ null, %29 ], [ null, %32 ], [ %47, %45 ]
  call void @llvm.lifetime.end.p0(i64 64, ptr nonnull %4) #11
  ret ptr %.0
}